; Function Attrs: mustprogress nounwind uwtable
define dso_local void @_ZNK4llvm7PMStack4dumpEv(ptr nocapture noundef nonnull readonly align 8 dereferenceable(24) %0) local_unnamed_addr #0 align 2 {
  %2 = load ptr, ptr %0, align 8
  %3 = getelementptr inbounds nuw i8, ptr %0, i64 8
  %4 = load ptr, ptr %3, align 8
  %.not12 = icmp eq ptr %2, %4
  br i1 %.not12, label %_ZN4llvm11raw_ostreamlsEc.exit8, label %.lr.ph

.lr.ph:                                           ; preds = %1, %_ZN4llvm11raw_ostreamlsEc.exit
  %.sroa.09.013 = phi ptr [ %39, %_ZN4llvm11raw_ostreamlsEc.exit ], [ %2, %1 ]
  %5 = load ptr, ptr %.sroa.09.013, align 8
  %6 = tail call noundef nonnull align 8 dereferenceable(48) ptr @_ZN4llvm4dbgsEv() #27
  %7 = load ptr, ptr %5, align 8
  %8 = getelementptr inbounds i8, ptr %7, i64 16
  %9 = load ptr, ptr %8, align 8
  %10 = tail call noundef ptr %9(ptr noundef nonnull align 8 dereferenceable(380) %5) #27
  %11 = load ptr, ptr %10, align 8
  %12 = getelementptr inbounds i8, ptr %11, i64 16
  %13 = load ptr, ptr %12, align 8
  %14 = tail call { ptr, i64 } %13(ptr noundef nonnull align 8 dereferenceable(28) %10) #27
  %15 = extractvalue { ptr, i64 } %14, 0
  %16 = extractvalue { ptr, i64 } %14, 1
  %17 = getelementptr inbounds nuw i8, ptr %6, i64 24
  %18 = load ptr, ptr %17, align 8
  %19 = getelementptr inbounds nuw i8, ptr %6, i64 32
  %20 = load ptr, ptr %19, align 8
  %21 = ptrtoint ptr %18 to i64
  %22 = ptrtoint ptr %20 to i64
  %23 = sub i64 %21, %22
  %24 = icmp ugt i64 %16, %23
  br i1 %24, label %25, label %27

25:                                               ; preds = %.lr.ph
  %26 = tail call noundef nonnull align 8 dereferenceable(48) ptr @_ZN4llvm11raw_ostream5writeEPKcm(ptr noundef nonnull align 8 dereferenceable(48) %6, ptr noundef %15, i64 noundef %16) #27
  %.phi.trans.insert = getelementptr inbounds nuw i8, ptr %26, i64 32
  %.pre = load ptr, ptr %.phi.trans.insert, align 8
  br label %_ZN4llvm11raw_ostreamlsENS_9StringRefE.exit

27:                                               ; preds = %.lr.ph
  %.not.i = icmp eq i64 %16, 0
  br i1 %.not.i, label %_ZN4llvm11raw_ostreamlsENS_9StringRefE.exit, label %28

28:                                               ; preds = %27
  tail call void @llvm.memcpy.p0.p0.i64(ptr align 1 %20, ptr align 1 %15, i64 %16, i1 false)
  %29 = load ptr, ptr %19, align 8
  %30 = getelementptr inbounds i8, ptr %29, i64 %16
  store ptr %30, ptr %19, align 8
  br label %_ZN4llvm11raw_ostreamlsENS_9StringRefE.exit

_ZN4llvm11raw_ostreamlsENS_9StringRefE.exit:      ; preds = %25, %27, %28
  %31 = phi ptr [ %.pre, %25 ], [ %30, %28 ], [ %20, %27 ]
  %.0.i = phi ptr [ %26, %25 ], [ %6, %28 ], [ %6, %27 ]
  %32 = getelementptr inbounds nuw i8, ptr %.0.i, i64 24
  %33 = load ptr, ptr %32, align 8
  %.not.i4 = icmp ult ptr %31, %33
  br i1 %.not.i4, label %36, label %34

34:                                               ; preds = %_ZN4llvm11raw_ostreamlsENS_9StringRefE.exit
  %35 = tail call noundef nonnull align 8 dereferenceable(48) ptr @_ZN4llvm11raw_ostream5writeEh(ptr noundef nonnull align 8 dereferenceable(48) %.0.i, i8 noundef zeroext 32) #27
  br label %_ZN4llvm11raw_ostreamlsEc.exit

36:                                               ; preds = %_ZN4llvm11raw_ostreamlsENS_9StringRefE.exit
  %37 = getelementptr inbounds nuw i8, ptr %.0.i, i64 32
  %38 = getelementptr inbounds i8, ptr %31, i64 1
  store ptr %38, ptr %37, align 8
  store i8 32, ptr %31, align 1
  br label %_ZN4llvm11raw_ostreamlsEc.exit

_ZN4llvm11raw_ostreamlsEc.exit:                   ; preds = %34, %36
  %39 = getelementptr inbounds i8, ptr %.sroa.09.013, i64 8
  %.not = icmp eq ptr %39, %4
  br i1 %.not, label %._crit_edge, label %.lr.ph

._crit_edge:                                      ; preds = %_ZN4llvm11raw_ostreamlsEc.exit
  %.pre14 = load ptr, ptr %0, align 8
  %.pre15 = load ptr, ptr %3, align 8
  %40 = icmp eq ptr %.pre14, %.pre15
  br i1 %40, label %_ZN4llvm11raw_ostreamlsEc.exit8, label %41

41:                                               ; preds = %._crit_edge
  %42 = tail call noundef nonnull align 8 dereferenceable(48) ptr @_ZN4llvm4dbgsEv() #27
  %43 = getelementptr inbounds nuw i8, ptr %42, i64 32
  %44 = load ptr, ptr %43, align 8
  %45 = getelementptr inbounds nuw i8, ptr %42, i64 24
  %46 = load ptr, ptr %45, align 8
  %.not.i6 = icmp ult ptr %44, %46
  br i1 %.not.i6, label %49, label %47

47:                                               ; preds = %41
  %48 = tail call noundef nonnull align 8 dereferenceable(48) ptr @_ZN4llvm11raw_ostream5writeEh(ptr noundef nonnull align 8 dereferenceable(48) %42, i8 noundef zeroext 10) #27
  br label %_ZN4llvm11raw_ostreamlsEc.exit8

49:                                               ; preds = %41
  %50 = getelementptr inbounds i8, ptr %44, i64 1
  store ptr %50, ptr %43, align 8
  store i8 10, ptr %44, align 1
  br label %_ZN4llvm11raw_ostreamlsEc.exit8

_ZN4llvm11raw_ostreamlsEc.exit8:                  ; preds = %1, %49, %47, %._crit_edge
  ret void
}